target datalayout = "e-m:e-p270:32:32-p271:32:32-p272:64:64-i64:64-i128:128-f80:128-n8:16:32:64-S128"
target triple = "x86_64-pc-linux-gnu"

%struct._zend_refcounted_h = type { i32, %union.anon.0 }
%union.anon.0 = type { i32 }
%struct._zend_string = type { %struct._zend_refcounted_h, i64, i64, [1 x i8] }

@.str.149 = private unnamed_addr constant [4 x i8] c"1.0\00", align 1
@.str.150 = private unnamed_addr constant [4 x i8] c"2.0\00", align 1
@.str.151 = private unnamed_addr constant [1 x i8] zeroinitializer, align 1
@.str.152 = private unnamed_addr constant [4 x i8] c"XML\00", align 1
@.str.153 = private unnamed_addr constant [5 x i8] c"Core\00", align 1

; Function Attrs: nounwind uwtable
define hidden zeroext i1 @dom_has_feature(ptr noundef %0, ptr noundef %1) #0 {
  %3 = alloca ptr, align 8
  %4 = alloca ptr, align 8
  %5 = alloca i64, align 8
  %6 = alloca ptr, align 8
  %7 = alloca ptr, align 8
  %8 = alloca i64, align 8
  %9 = alloca ptr, align 8
  %10 = alloca ptr, align 8
  %11 = alloca i64, align 8
  %12 = alloca ptr, align 8
  %13 = alloca ptr, align 8
  %14 = alloca i64, align 8
  %15 = alloca i1, align 1
  %16 = alloca ptr, align 8
  %17 = alloca ptr, align 8
  store ptr %0, ptr %16, align 8
  store ptr %1, ptr %17, align 8
  %18 = load ptr, ptr %17, align 8
  store ptr %18, ptr %3, align 8
  store ptr @.str.149, ptr %4, align 8
  store i64 3, ptr %5, align 8
  %19 = load ptr, ptr %3, align 8
  %20 = getelementptr inbounds %struct._zend_string, ptr %19, i32 0, i32 2
  %21 = load i64, ptr %20, align 8
  %22 = load i64, ptr %5, align 8
  %23 = icmp eq i64 %21, %22
  br i1 %23, label %24, label %32

24:                                               ; preds = %2
  %25 = load ptr, ptr %3, align 8
  %26 = getelementptr inbounds %struct._zend_string, ptr %25, i32 0, i32 3
  %27 = load ptr, ptr %4, align 8
  %28 = load i64, ptr %5, align 8
  %29 = call i32 @memcmp(ptr noundef %26, ptr noundef %27, i64 noundef %28) #13
  %30 = icmp ne i32 %29, 0
  %31 = xor i1 %30, true
  br label %32

32:                                               ; preds = %24, %2
  %33 = phi i1 [ false, %2 ], [ %31, %24 ]
  br i1 %33, label %68, label %34

34:                                               ; preds = %32
  %35 = load ptr, ptr %17, align 8
  store ptr %35, ptr %6, align 8
  store ptr @.str.150, ptr %7, align 8
  store i64 3, ptr %8, align 8
  %36 = load ptr, ptr %6, align 8
  %37 = getelementptr inbounds %struct._zend_string, ptr %36, i32 0, i32 2
  %38 = load i64, ptr %37, align 8
  %39 = load i64, ptr %8, align 8
  %40 = icmp eq i64 %38, %39
  br i1 %40, label %41, label %49

41:                                               ; preds = %34
  %42 = load ptr, ptr %6, align 8
  %43 = getelementptr inbounds %struct._zend_string, ptr %42, i32 0, i32 3
  %44 = load ptr, ptr %7, align 8
  %45 = load i64, ptr %8, align 8
  %46 = call i32 @memcmp(ptr noundef %43, ptr noundef %44, i64 noundef %45) #13
  %47 = icmp ne i32 %46, 0
  %48 = xor i1 %47, true
  br label %49

49:                                               ; preds = %41, %34
  %50 = phi i1 [ false, %34 ], [ %48, %41 ]
  br i1 %50, label %68, label %51

51:                                               ; preds = %49
  %52 = load ptr, ptr %17, align 8
  store ptr %52, ptr %9, align 8
  store ptr @.str.151, ptr %10, align 8
  store i64 0, ptr %11, align 8
  %53 = load ptr, ptr %9, align 8
  %54 = getelementptr inbounds %struct._zend_string, ptr %53, i32 0, i32 2
  %55 = load i64, ptr %54, align 8
  %56 = load i64, ptr %11, align 8
  %57 = icmp eq i64 %55, %56
  br i1 %57, label %58, label %66

58:                                               ; preds = %51
  %59 = load ptr, ptr %9, align 8
  %60 = getelementptr inbounds %struct._zend_string, ptr %59, i32 0, i32 3
  %61 = load ptr, ptr %10, align 8
  %62 = load i64, ptr %11, align 8
  %63 = call i32 @memcmp(ptr noundef %60, ptr noundef %61, i64 noundef %62) #13
  %64 = icmp ne i32 %63, 0
  %65 = xor i1 %64, true
  br label %66

66:                                               ; preds = %58, %51
  %67 = phi i1 [ false, %51 ], [ %65, %58 ]
  br i1 %67, label %68, label %115

68:                                               ; preds = %66, %49, %32
  %69 = load ptr, ptr %16, align 8
  %70 = getelementptr inbounds %struct._zend_string, ptr %69, i32 0, i32 2
  %71 = load i64, ptr %70, align 8
  %72 = icmp eq i64 %71, 3
  br i1 %72, label %73, label %82

73:                                               ; preds = %68
  %74 = load ptr, ptr %16, align 8
  %75 = getelementptr inbounds %struct._zend_string, ptr %74, i32 0, i32 3
  %76 = getelementptr inbounds [1 x i8], ptr %75, i64 0, i64 0
  %77 = load ptr, ptr %16, align 8
  %78 = getelementptr inbounds %struct._zend_string, ptr %77, i32 0, i32 2
  %79 = load i64, ptr %78, align 8
  %80 = call i32 @zend_binary_strcasecmp(ptr noundef %76, i64 noundef %79, ptr noundef @.str.152, i64 noundef 3)
  %81 = icmp ne i32 %80, 0
  br i1 %81, label %82, label %113

82:                                               ; preds = %73, %68
  %83 = load ptr, ptr %16, align 8
  %84 = getelementptr inbounds %struct._zend_string, ptr %83, i32 0, i32 2
  %85 = load i64, ptr %84, align 8
  %86 = icmp eq i64 %85, 4
  br i1 %86, label %87, label %114

87:                                               ; preds = %82
  %88 = load ptr, ptr %16, align 8
  %89 = getelementptr inbounds %struct._zend_string, ptr %88, i32 0, i32 3
  %90 = getelementptr inbounds [1 x i8], ptr %89, i64 0, i64 0
  %91 = load ptr, ptr %16, align 8
  %92 = getelementptr inbounds %struct._zend_string, ptr %91, i32 0, i32 2
  %93 = load i64, ptr %92, align 8
  %94 = call i32 @zend_binary_strcasecmp(ptr noundef %90, i64 noundef %93, ptr noundef @.str.153, i64 noundef 4)
  %95 = icmp ne i32 %94, 0
  br i1 %95, label %114, label %96

96:                                               ; preds = %87
  %97 = load ptr, ptr %17, align 8
  store ptr %97, ptr %12, align 8
  store ptr @.str.149, ptr %13, align 8
  store i64 3, ptr %14, align 8
  %98 = load ptr, ptr %12, align 8
  %99 = getelementptr inbounds %struct._zend_string, ptr %98, i32 0, i32 2
  %100 = load i64, ptr %99, align 8
  %101 = load i64, ptr %14, align 8
  %102 = icmp eq i64 %100, %101
  br i1 %102, label %103, label %111

103:                                              ; preds = %96
  %104 = load ptr, ptr %12, align 8
  %105 = getelementptr inbounds %struct._zend_string, ptr %104, i32 0, i32 3
  %106 = load ptr, ptr %13, align 8
  %107 = load i64, ptr %14, align 8
  %108 = call i32 @memcmp(ptr noundef %105, ptr noundef %106, i64 noundef %107) #13
  %109 = icmp ne i32 %108, 0
  %110 = xor i1 %109, true
  br label %111

111:                                              ; preds = %103, %96
  %112 = phi i1 [ false, %96 ], [ %110, %103 ]
  br i1 %112, label %113, label %114

113:                                              ; preds = %111, %73
  store i1 true, ptr %15, align 1
  br label %116

114:                                              ; preds = %111, %87, %82
  br label %115

115:                                              ; preds = %114, %66
  store i1 false, ptr %15, align 1
  br label %116

116:                                              ; preds = %115, %113
  %117 = load i1, ptr %15, align 1
  ret i1 %117
}