; Function Attrs: nounwind uwtable
define hidden noundef zeroext i1 @dom_has_feature(ptr noundef %0, ptr nocapture noundef readonly %1) local_unnamed_addr #1 {
  %3 = getelementptr inbounds i8, ptr %1, i64 16
  %4 = load i64, ptr %3, align 8
  switch i64 %4, label %.critedge6 [
    i64 3, label %5
    i64 0, label %8
  ]

5:                                                ; preds = %2
  %6 = getelementptr inbounds i8, ptr %1, i64 24
  %bcmp = tail call i32 @bcmp(ptr noundef nonnull dereferenceable(3) %6, ptr noundef nonnull dereferenceable(3) @.str.149, i64 3)
  %.not = icmp eq i32 %bcmp, 0
  br i1 %.not, label %8, label %7

7:                                                ; preds = %5
  %bcmp38 = tail call i32 @bcmp(ptr noundef nonnull dereferenceable(3) %6, ptr noundef nonnull dereferenceable(3) @.str.150, i64 3)
  %.not39 = icmp eq i32 %bcmp38, 0
  br i1 %.not39, label %8, label %.critedge6

8:                                                ; preds = %2, %7, %5
  %9 = getelementptr inbounds i8, ptr %0, i64 16
  %10 = load i64, ptr %9, align 8
  %11 = icmp eq i64 %10, 3
  br i1 %11, label %12, label %15

12:                                               ; preds = %8
  %13 = getelementptr inbounds i8, ptr %0, i64 24
  %14 = tail call i32 @zend_binary_strcasecmp(ptr noundef nonnull %13, i64 noundef 3, ptr noundef nonnull @.str.152, i64 noundef 3) #16
  %.not40 = icmp eq i32 %14, 0
  br i1 %.not40, label %26, label %thread-pre-split

thread-pre-split:                                 ; preds = %12
  %.pr = load i64, ptr %9, align 8
  br label %15

15:                                               ; preds = %thread-pre-split, %8
  %16 = phi i64 [ %.pr, %thread-pre-split ], [ %10, %8 ]
  %17 = icmp eq i64 %16, 4
  br i1 %17, label %18, label %.critedge6

18:                                               ; preds = %15
  %19 = getelementptr inbounds i8, ptr %0, i64 24
  %20 = tail call i32 @zend_binary_strcasecmp(ptr noundef nonnull %19, i64 noundef 4, ptr noundef nonnull @.str.153, i64 noundef 4) #16
  %.not41 = icmp eq i32 %20, 0
  br i1 %.not41, label %21, label %.critedge6

21:                                               ; preds = %18
  %22 = load i64, ptr %3, align 8
  %23 = icmp eq i64 %22, 3
  br i1 %23, label %24, label %.critedge6

24:                                               ; preds = %21
  %25 = getelementptr inbounds i8, ptr %1, i64 24
  %bcmp42 = tail call i32 @bcmp(ptr noundef nonnull dereferenceable(3) %25, ptr noundef nonnull dereferenceable(3) @.str.149, i64 3)
  %.not43 = icmp eq i32 %bcmp42, 0
  br i1 %.not43, label %26, label %.critedge6

.critedge6:                                       ; preds = %2, %7, %15, %18, %24, %21
  br label %26

26:                                               ; preds = %12, %24, %.critedge6
  %.0 = phi i1 [ false, %.critedge6 ], [ true, %24 ], [ true, %12 ]
  ret i1 %.0
}